; Function Attrs: mustprogress uwtable
define noundef zeroext i1 @_ZNK8facebook5velox4core12PlanFragment8canSpillERKNS1_11QueryConfigE(ptr nocapture noundef nonnull readonly align 8 dereferenceable(80) %this, ptr noundef nonnull align 8 dereferenceable(8) %queryConfig) local_unnamed_addr #0 align 2 personality ptr @__gxx_personality_v0 {
entry:
  %ref.tmp = alloca %"class.std::function", align 8
  %call = tail call noundef zeroext i1 @_ZNK8facebook5velox4core11QueryConfig12spillEnabledEv(ptr noundef nonnull align 8 dereferenceable(8) %queryConfig)
  br i1 %call, label %if.end, label %return

if.end:                                           ; preds = %entry
  %0 = load ptr, ptr %this, align 8
  %_M_manager.i.i = getelementptr inbounds i8, ptr %ref.tmp, i64 16
  %_M_invoker.i = getelementptr inbounds i8, ptr %ref.tmp, i64 24
  %1 = getelementptr inbounds i8, ptr %ref.tmp, i64 8
  store i64 0, ptr %1, align 8
  %2 = ptrtoint ptr %queryConfig to i64
  store i64 %2, ptr %ref.tmp, align 8
  store ptr @"_ZNSt17_Function_handlerIFbPKN8facebook5velox4core8PlanNodeEEZNKS2_12PlanFragment8canSpillERKNS2_11QueryConfigEE3$_0E9_M_invokeERKSt9_Any_dataOS5_", ptr %_M_invoker.i, align 8
  store ptr @"_ZNSt17_Function_handlerIFbPKN8facebook5velox4core8PlanNodeEEZNKS2_12PlanFragment8canSpillERKNS2_11QueryConfigEE3$_0E10_M_managerERSt9_Any_dataRKSD_St18_Manager_operation", ptr %_M_manager.i.i, align 8
  %call4 = invoke noundef ptr @_ZN8facebook5velox4core8PlanNode13findFirstNodeEPKS2_RKSt8functionIFbS4_EE(ptr noundef %0, ptr noundef nonnull align 8 dereferenceable(32) %ref.tmp)
          to label %invoke.cont unwind label %lpad

invoke.cont:                                      ; preds = %if.end
  %cmp = icmp ne ptr %call4, null
  %3 = load ptr, ptr %_M_manager.i.i, align 8
  %tobool.not.i.i = icmp eq ptr %3, null
  br i1 %tobool.not.i.i, label %return, label %if.then.i.i

if.then.i.i:                                      ; preds = %invoke.cont
  %call.i.i = invoke noundef zeroext i1 %3(ptr noundef nonnull align 8 dereferenceable(16) %ref.tmp, ptr noundef nonnull align 8 dereferenceable(16) %ref.tmp, i32 noundef 3)
          to label %return unwind label %terminate.lpad.i.i

terminate.lpad.i.i:                               ; preds = %if.then.i.i
  %4 = landingpad { ptr, i32 }
          catch ptr null
  %5 = extractvalue { ptr, i32 } %4, 0
  call void @__clang_call_terminate(ptr %5) #12
  unreachable

lpad:                                             ; preds = %if.end
  %6 = landingpad { ptr, i32 }
          cleanup
  %7 = load ptr, ptr %_M_manager.i.i, align 8
  %tobool.not.i.i4 = icmp eq ptr %7, null
  br i1 %tobool.not.i.i4, label %_ZNSt8functionIFbPKN8facebook5velox4core8PlanNodeEEED2Ev.exit8, label %if.then.i.i5

if.then.i.i5:                                     ; preds = %lpad
  %call.i.i6 = invoke noundef zeroext i1 %7(ptr noundef nonnull align 8 dereferenceable(16) %ref.tmp, ptr noundef nonnull align 8 dereferenceable(16) %ref.tmp, i32 noundef 3)
          to label %_ZNSt8functionIFbPKN8facebook5velox4core8PlanNodeEEED2Ev.exit8 unwind label %terminate.lpad.i.i7

terminate.lpad.i.i7:                              ; preds = %if.then.i.i5
  %8 = landingpad { ptr, i32 }
          catch ptr null
  %9 = extractvalue { ptr, i32 } %8, 0
  call void @__clang_call_terminate(ptr %9) #12
  unreachable

_ZNSt8functionIFbPKN8facebook5velox4core8PlanNodeEEED2Ev.exit8: ; preds = %lpad, %if.then.i.i5
  resume { ptr, i32 } %6

return:                                           ; preds = %if.then.i.i, %invoke.cont, %entry
  %retval.0 = phi i1 [ false, %entry ], [ %cmp, %invoke.cont ], [ %cmp, %if.then.i.i ]
  ret i1 %retval.0
}